; Function Attrs: nounwind uwtable
define internal i32 @_sort_job_by_reservation(ptr noundef readonly captures(none) %0, ptr noundef readonly captures(none) %1) #0 {
  %.val = load ptr, ptr %0, align 8
  %3 = getelementptr i8, ptr %.val, i64 8
  %.val.val = load ptr, ptr %3, align 8
  %4 = load ptr, ptr %1, align 8
  %5 = getelementptr inbounds nuw i8, ptr %4, i64 8
  %6 = load ptr, ptr %5, align 8
  %7 = getelementptr inbounds nuw i8, ptr %.val.val, i64 712
  %8 = load ptr, ptr %7, align 8
  %.not = icmp eq ptr %8, null
  %spec.select = select i1 %.not, ptr @.str.5, ptr %8
  %9 = getelementptr inbounds nuw i8, ptr %6, i64 712
  %10 = load ptr, ptr %9, align 8
  %.not9 = icmp eq ptr %10, null
  %.0 = select i1 %.not9, ptr @.str.5, ptr %10
  %11 = tail call i32 @xstrcmp(ptr noundef nonnull %spec.select, ptr noundef nonnull %.0) #11
  %.b10 = load i1, ptr @reverse_order, align 1
  %12 = sub nsw i32 0, %11
  %.06 = select i1 %.b10, i32 %12, i32 %11
  ret i32 %.06
}